target datalayout = "e-m:e-p270:32:32-p271:32:32-p272:64:64-i64:64-i128:128-f80:128-n8:16:32:64-S128"
target triple = "x86_64-pc-linux-gnu"

; Function Attrs: mustprogress uwtable
define internal noundef i32 @_ZL8math_mapP9lua_State(ptr noundef %0) #2 {
  %2 = alloca ptr, align 8
  %3 = alloca double, align 8
  %4 = alloca double, align 8
  %5 = alloca double, align 8
  %6 = alloca double, align 8
  %7 = alloca double, align 8
  %8 = alloca double, align 8
  store ptr %0, ptr %2, align 8, !tbaa !20
  call void @llvm.lifetime.start.p0(i64 8, ptr %3) #11
  %9 = load ptr, ptr %2, align 8, !tbaa !20
  %10 = call noundef double @_Z16luaL_checknumberP9lua_Statei(ptr noundef %9, i32 noundef 1)
  store double %10, ptr %3, align 8, !tbaa !37
  call void @llvm.lifetime.start.p0(i64 8, ptr %4) #11
  %11 = load ptr, ptr %2, align 8, !tbaa !20
  %12 = call noundef double @_Z16luaL_checknumberP9lua_Statei(ptr noundef %11, i32 noundef 2)
  store double %12, ptr %4, align 8, !tbaa !37
  call void @llvm.lifetime.start.p0(i64 8, ptr %5) #11
  %13 = load ptr, ptr %2, align 8, !tbaa !20
  %14 = call noundef double @_Z16luaL_checknumberP9lua_Statei(ptr noundef %13, i32 noundef 3)
  store double %14, ptr %5, align 8, !tbaa !37
  call void @llvm.lifetime.start.p0(i64 8, ptr %6) #11
  %15 = load ptr, ptr %2, align 8, !tbaa !20
  %16 = call noundef double @_Z16luaL_checknumberP9lua_Statei(ptr noundef %15, i32 noundef 4)
  store double %16, ptr %6, align 8, !tbaa !37
  call void @llvm.lifetime.start.p0(i64 8, ptr %7) #11
  %17 = load ptr, ptr %2, align 8, !tbaa !20
  %18 = call noundef double @_Z16luaL_checknumberP9lua_Statei(ptr noundef %17, i32 noundef 5)
  store double %18, ptr %7, align 8, !tbaa !37
  call void @llvm.lifetime.start.p0(i64 8, ptr %8) #11
  %19 = load double, ptr %6, align 8, !tbaa !37
  %20 = load double, ptr %3, align 8, !tbaa !37
  %21 = load double, ptr %4, align 8, !tbaa !37
  %22 = fsub double %20, %21
  %23 = load double, ptr %7, align 8, !tbaa !37
  %24 = load double, ptr %6, align 8, !tbaa !37
  %25 = fsub double %23, %24
  %26 = fmul double %22, %25
  %27 = load double, ptr %5, align 8, !tbaa !37
  %28 = load double, ptr %4, align 8, !tbaa !37
  %29 = fsub double %27, %28
  %30 = fdiv double %26, %29
  %31 = fadd double %19, %30
  store double %31, ptr %8, align 8, !tbaa !37
  %32 = load ptr, ptr %2, align 8, !tbaa !20
  %33 = load double, ptr %8, align 8, !tbaa !37
  call void @_Z14lua_pushnumberP9lua_Stated(ptr noundef %32, double noundef %33)
  call void @llvm.lifetime.end.p0(i64 8, ptr %8) #11
  call void @llvm.lifetime.end.p0(i64 8, ptr %7) #11
  call void @llvm.lifetime.end.p0(i64 8, ptr %6) #11
  call void @llvm.lifetime.end.p0(i64 8, ptr %5) #11
  call void @llvm.lifetime.end.p0(i64 8, ptr %4) #11
  call void @llvm.lifetime.end.p0(i64 8, ptr %3) #11
  ret i32 1
}