; Function Attrs: mustprogress uwtable
define internal noundef i32 @_ZL8math_mapP9lua_State(ptr noundef %0) #0 {
  %2 = tail call noundef double @_Z16luaL_checknumberP9lua_Statei(ptr noundef %0, i32 noundef 1)
  %3 = tail call noundef double @_Z16luaL_checknumberP9lua_Statei(ptr noundef %0, i32 noundef 2)
  %4 = tail call noundef double @_Z16luaL_checknumberP9lua_Statei(ptr noundef %0, i32 noundef 3)
  %5 = tail call noundef double @_Z16luaL_checknumberP9lua_Statei(ptr noundef %0, i32 noundef 4)
  %6 = tail call noundef double @_Z16luaL_checknumberP9lua_Statei(ptr noundef %0, i32 noundef 5)
  %7 = fsub double %2, %3
  %8 = fsub double %6, %5
  %9 = fmul double %7, %8
  %10 = fsub double %4, %3
  %11 = fdiv double %9, %10
  %12 = fadd double %5, %11
  tail call void @_Z14lua_pushnumberP9lua_Stated(ptr noundef %0, double noundef %12)
  ret i32 1
}